EXPORTS 
	??_R0?AVairTrack@@@8 	 DATA
	??_R0?AVairTransport@@@8 	 DATA
	??_R0?AVallTrack@@@8 	 DATA
	??_R0?AVbad_alloc@std@@@8 	 DATA
	??_R0?AVbad_array_new_length@std@@@8 	 DATA
	??_R0?AVbaseTransport@@@8 	 DATA
	??_R0?AVboots@@@8 	 DATA
	??_R0?AVbroom@@@8 	 DATA
	??_R0?AVcamel@@@8 	 DATA
	??_R0?AVcamelFast@@@8 	 DATA
	??_R0?AVcarpet@@@8 	 DATA
	??_R0?AVcentaur@@@8 	 DATA
	??_R0?AVeagle@@@8 	 DATA
	??_R0?AVerrorReg@@@8 	 DATA
	??_R0?AVexception@std@@@8 	 DATA
	??_R0?AVgroundTrack@@@8 	 DATA
	??_R0?AVgroundTransport@@@8 	 DATA
	??_R0?AVtrack@@@8 	 DATA
	??$?0$$V@?$_Compressed_pair@V?$allocator@_W@std@@V?$_String_val@U?$_Simple_types@_W@std@@@2@$00@std@@QEAA@U_Zero_then_variadic_args_t@1@@Z
	??$?0AEAV?$allocator@_W@std@@$$V@?$_Compressed_pair@V?$allocator@_W@std@@V?$_String_val@U?$_Simple_types@_W@std@@@2@$00@std@@QEAA@U_One_then_variadic_args_t@1@AEAV?$allocator@_W@1@@Z
	??$?0V?$allocator@_W@std@@$$V@?$_Compressed_pair@V?$allocator@_W@std@@V?$_String_val@U?$_Simple_types@_W@std@@@2@$00@std@@QEAA@U_One_then_variadic_args_t@1@$$QEAV?$allocator@_W@1@@Z
	??$?0_W@?$allocator@U_Container_proxy@std@@@std@@QEAA@AEBV?$allocator@_W@1@@Z
	??$?H_WU?$char_traits@_W@std@@V?$allocator@_W@1@@std@@YA?AV?$basic_string@_WU?$char_traits@_W@std@@V?$allocator@_W@2@@0@$$QEAV10@0@Z
	??$?H_WU?$char_traits@_W@std@@V?$allocator@_W@1@@std@@YA?AV?$basic_string@_WU?$char_traits@_W@std@@V?$allocator@_W@2@@0@$$QEAV10@QEB_W@Z
	??$?H_WU?$char_traits@_W@std@@V?$allocator@_W@1@@std@@YA?AV?$basic_string@_WU?$char_traits@_W@std@@V?$allocator@_W@2@@0@AEBV10@$$QEAV10@@Z
	??$?H_WU?$char_traits@_W@std@@V?$allocator@_W@1@@std@@YA?AV?$basic_string@_WU?$char_traits@_W@std@@V?$allocator@_W@2@@0@AEBV10@QEB_W@Z
	??$_Alloc_proxy@V?$allocator@U_Container_proxy@std@@@std@@@_Container_base12@std@@QEAAX$$QEAV?$allocator@U_Container_proxy@std@@@1@@Z
	??$_Allocate@$0BA@U_Default_allocate_traits@std@@@std@@YAPEAX_K@Z
	??$_Allocate_at_least_helper@V?$allocator@_W@std@@@std@@YAPEA_WAEAV?$allocator@_W@0@AEA_K@Z
	??$_Allocate_for_capacity@$0A@@?$basic_string@_WU?$char_traits@_W@std@@V?$allocator@_W@2@@std@@CAPEA_WAEAV?$allocator@_W@1@AEA_K@Z
	??$_Allocate_manually_vector_aligned@U_Default_allocate_traits@std@@@std@@YAPEAX_K@Z
	??$_Allocators_equal@V?$allocator@_W@std@@@std@@YA_NAEBV?$allocator@_W@0@0@Z
	??$_Construct@$00PEB_W@?$basic_string@_WU?$char_traits@_W@std@@V?$allocator@_W@2@@std@@AEAAXQEB_W_K@Z
	??$_Construct@$01PEB_W@?$basic_string@_WU?$char_traits@_W@std@@V?$allocator@_W@2@@std@@AEAAXQEB_W_K@Z
	??$_Construct_in_place@PEA_WAEAPEA_W@std@@YAXAEAPEA_W0@Z
	??$_Construct_in_place@PEA_WAEBQEA_W@std@@YAXAEAPEA_WAEBQEA_W@Z
	??$_Construct_in_place@U_Container_proxy@std@@PEAU_Container_base12@2@@std@@YAXAEAU_Container_proxy@0@$$QEAPEAU_Container_base12@0@@Z
	??$_Convert_size@_K_K@std@@YA_K_K@Z
	??$_Deallocate@$0BA@@std@@YAXPEAX_K@Z
	??$_Deallocate_plain@V?$allocator@U_Container_proxy@std@@@std@@@std@@YAXAEAV?$allocator@U_Container_proxy@std@@@0@QEAU_Container_proxy@0@@Z
	??$_Delete_plain_internal@V?$allocator@U_Container_proxy@std@@@std@@@std@@YAXAEAV?$allocator@U_Container_proxy@std@@@0@QEAU_Container_proxy@0@@Z
	??$_Destroy_in_place@PEA_W@std@@YAXAEAPEA_W@Z
	??$_Get_size_of_n@$01@std@@YA_K_K@Z
	??$_Get_size_of_n@$0BA@@std@@YA_K_K@Z
	??$_Max_limit@_J@std@@YA_JXZ
	??$_Pocca@V?$allocator@_W@std@@@std@@YAXAEAV?$allocator@_W@0@AEBV10@@Z
	??$_Pocma@V?$allocator@_W@std@@@std@@YAXAEAV?$allocator@_W@0@0@Z
	??$_Reallocate_for@V<lambda_3fa8b2c8193a0f3144fc4b1b8f243931>@@PEB_W@?$basic_string@_WU?$char_traits@_W@std@@V?$allocator@_W@2@@std@@AEAAAEAV01@_KV<lambda_3fa8b2c8193a0f3144fc4b1b8f243931>@@PEB_W@Z
	??$_Reallocate_grow_by@V<lambda_1dfe18491bcca09701d8ccb01d0b0af4>@@PEB_W_K@?$basic_string@_WU?$char_traits@_W@std@@V?$allocator@_W@2@@std@@AEAAAEAV01@_KV<lambda_1dfe18491bcca09701d8ccb01d0b0af4>@@PEB_W_K@Z
	??$_Reallocate_grow_by@V<lambda_967c2ed818824c5314a20ec3af46b793>@@_KPEB_W_K@?$basic_string@_WU?$char_traits@_W@std@@V?$allocator@_W@2@@std@@AEAAAEAV01@_KV<lambda_967c2ed818824c5314a20ec3af46b793>@@_KPEB_W2@Z
	??$_Unfancy@U_Container_proxy@std@@@std@@YAPEAU_Container_proxy@0@PEAU10@@Z
	??$_Unfancy@_W@std@@YAPEA_WPEA_W@Z
	??$addressof@$$CBV?$basic_string@_WU?$char_traits@_W@std@@V?$allocator@_W@2@@std@@@std@@YAPEBV?$basic_string@_WU?$char_traits@_W@std@@V?$allocator@_W@2@@0@AEBV10@@Z
	??$addressof@PEA_W@std@@YAPEAPEA_WAEAPEA_W@Z
	??$addressof@U_Container_base12@std@@@std@@YAPEAU_Container_base12@0@AEAU10@@Z
	??$addressof@U_Container_proxy@std@@@std@@YAPEAU_Container_proxy@0@AEAU10@@Z
	??$addressof@V?$_String_val@U?$_Simple_types@_W@std@@@std@@@std@@YAPEAV?$_String_val@U?$_Simple_types@_W@std@@@0@AEAV10@@Z
	??$addressof@V?$basic_string@_WU?$char_traits@_W@std@@V?$allocator@_W@2@@std@@@std@@YAPEAV?$basic_string@_WU?$char_traits@_W@std@@V?$allocator@_W@2@@0@AEAV10@@Z
	??$exchange@PEAU_Iterator_base12@std@@$$T@std@@YAPEAU_Iterator_base12@0@AEAPEAU10@$$QEA$$T@Z
	??$forward@AEAPEA_W@std@@YAAEAPEA_WAEAPEA_W@Z
	??$forward@AEAV?$allocator@_W@std@@@std@@YAAEAV?$allocator@_W@0@AEAV10@@Z
	??$forward@AEBQEA_W@std@@YAAEBQEA_WAEBQEA_W@Z
	??$forward@PEAU_Container_base12@std@@@std@@YA$$QEAPEAU_Container_base12@0@AEAPEAU10@@Z
	??$forward@V?$allocator@_W@std@@@std@@YA$$QEAV?$allocator@_W@0@AEAV10@@Z
	??$max@_K@std@@YAAEB_KAEB_K0@Z
	??$min@_K@std@@YAAEB_KAEB_K0@Z
	??$move@AEAV?$allocator@_W@std@@@std@@YA$$QEAV?$allocator@_W@0@AEAV10@@Z
	??$move@AEAV?$basic_string@_WU?$char_traits@_W@std@@V?$allocator@_W@2@@std@@@std@@YA$$QEAV?$basic_string@_WU?$char_traits@_W@std@@V?$allocator@_W@2@@0@AEAV10@@Z
	??0?$_Container_proxy_ptr12@V?$allocator@U_Container_proxy@std@@@std@@@std@@QEAA@AEAV?$allocator@U_Container_proxy@std@@@1@AEAU_Container_base12@1@@Z
	??0?$_String_val@U?$_Simple_types@_W@std@@@std@@QEAA@XZ
	??0?$allocator@_W@std@@QEAA@XZ
	??0?$basic_string@_WU?$char_traits@_W@std@@V?$allocator@_W@2@@std@@QEAA@$$QEAV01@@Z
	??0?$basic_string@_WU?$char_traits@_W@std@@V?$allocator@_W@2@@std@@QEAA@AEBV01@@Z
	??0?$basic_string@_WU?$char_traits@_W@std@@V?$allocator@_W@2@@std@@QEAA@QEB_W@Z
	??0?$basic_string@_WU?$char_traits@_W@std@@V?$allocator@_W@2@@std@@QEAA@U_String_constructor_concat_tag@1@AEAV01@1@Z
	??0?$basic_string@_WU?$char_traits@_W@std@@V?$allocator@_W@2@@std@@QEAA@U_String_constructor_concat_tag@1@AEBV01@QEB_W_K23@Z
	??0?$basic_string@_WU?$char_traits@_W@std@@V?$allocator@_W@2@@std@@QEAA@XZ
	??0_Basic_container_proxy_ptr12@std@@IEAA@XZ
	??0_Bxty@?$_String_val@U?$_Simple_types@_W@std@@@std@@QEAA@XZ
	??0_Container_base12@std@@QEAA@XZ
	??0_Container_proxy@std@@QEAA@PEAU_Container_base12@1@@Z
	??0airTrack@@QEAA@XZ
	??0airTransport@@QEAA@V?$basic_string@_WU?$char_traits@_W@std@@V?$allocator@_W@2@@std@@W4transport@@H@Z
	??0allTrack@@QEAA@XZ
	??0bad_alloc@std@@AEAA@QEBD@Z
	??0bad_alloc@std@@QEAA@AEBV01@@Z
	??0bad_array_new_length@std@@QEAA@AEBV01@@Z
	??0bad_array_new_length@std@@QEAA@XZ
	??0baseTransport@@QEAA@V?$basic_string@_WU?$char_traits@_W@std@@V?$allocator@_W@2@@std@@_NW4transport@@@Z
	??0boots@@QEAA@XZ
	??0broom@@QEAA@XZ
	??0camel@@QEAA@XZ
	??0camelFast@@QEAA@XZ
	??0carpet@@QEAA@XZ
	??0centaur@@QEAA@XZ
	??0eagle@@QEAA@XZ
	??0errorReg@@QEAA@AEBV0@@Z
	??0errorReg@@QEAA@V?$basic_string@_WU?$char_traits@_W@std@@V?$allocator@_W@2@@std@@@Z
	??0exception@std@@QEAA@AEBV01@@Z
	??0exception@std@@QEAA@QEBDH@Z
	??0groundTrack@@QEAA@XZ
	??0groundTransport@@QEAA@V?$basic_string@_WU?$char_traits@_W@std@@V?$allocator@_W@2@@std@@W4transport@@HH@Z
	??0pairResult@@QEAA@AEBU0@@Z
	??0pairResult@@QEAA@XZ
	??0resultRace@@QEAA@AEAV0@@Z
	??0resultRace@@QEAA@I@Z
	??0track@@QEAA@W4typeTrack@@@Z
	??1?$_Compressed_pair@V?$allocator@_W@std@@V?$_String_val@U?$_Simple_types@_W@std@@@2@$00@std@@QEAA@XZ
	??1?$_Container_proxy_ptr12@V?$allocator@U_Container_proxy@std@@@std@@@std@@QEAA@XZ
	??1?$_String_val@U?$_Simple_types@_W@std@@@std@@QEAA@XZ
	??1?$basic_string@_WU?$char_traits@_W@std@@V?$allocator@_W@2@@std@@QEAA@XZ
	??1_Bxty@?$_String_val@U?$_Simple_types@_W@std@@@std@@QEAA@XZ
	??1airTransport@@UEAA@XZ
	??1bad_alloc@std@@UEAA@XZ
	??1bad_array_new_length@std@@UEAA@XZ
	??1baseTransport@@UEAA@XZ
	??1boots@@UEAA@XZ
	??1broom@@UEAA@XZ
	??1camel@@UEAA@XZ
	??1camelFast@@UEAA@XZ
	??1carpet@@UEAA@XZ
	??1centaur@@UEAA@XZ
	??1eagle@@UEAA@XZ
	??1errorReg@@QEAA@XZ
	??1exception@std@@UEAA@XZ
	??1groundTransport@@UEAA@XZ
	??1pairResult@@QEAA@XZ
	??1resultRace@@QEAA@XZ
	??1track@@QEAA@XZ
	??2@YAPEAX_KPEAX@Z
	??4?$basic_string@_WU?$char_traits@_W@std@@V?$allocator@_W@2@@std@@QEAAAEAV01@$$QEAV01@@Z
	??4?$basic_string@_WU?$char_traits@_W@std@@V?$allocator@_W@2@@std@@QEAAAEAV01@AEBV01@@Z
	??4?$basic_string@_WU?$char_traits@_W@std@@V?$allocator@_W@2@@std@@QEAAAEAV01@QEB_W@Z
	??4pairResult@@QEAAAEAU0@AEBU0@@Z
	??AresultRace@@QEAAAEAUpairResult@@H@Z
	??R<lambda_1dfe18491bcca09701d8ccb01d0b0af4>@@QEBA@QEA_WQEB_W_K12@Z
	??R<lambda_3fa8b2c8193a0f3144fc4b1b8f243931>@@QEBA@QEA_W_KQEB_W@Z
	??R<lambda_967c2ed818824c5314a20ec3af46b793>@@QEBA@QEA_WQEB_W_K212@Z
	??_7airTrack@@6B@
	??_7airTransport@@6B@
	??_7allTrack@@6B@
	??_7bad_alloc@std@@6B@
	??_7bad_array_new_length@std@@6B@
	??_7baseTransport@@6B@
	??_7boots@@6B@
	??_7broom@@6B@
	??_7camel@@6B@
	??_7camelFast@@6B@
	??_7carpet@@6B@
	??_7centaur@@6B@
	??_7eagle@@6B@
	??_7exception@std@@6B@
	??_7groundTrack@@6B@
	??_7groundTransport@@6B@
	??_7track@@6B@
	?_Activate_SSO_buffer@?$_String_val@U?$_Simple_types@_W@std@@@std@@QEAAXXZ
	?_Adjust_manually_vector_aligned@std@@YAXAEAPEAXAEA_K@Z
	?_Allocate@_Default_allocate_traits@std@@SAPEAX_K@Z
	?_Calculate_growth@?$basic_string@_WU?$char_traits@_W@std@@V?$allocator@_W@2@@std@@AEBA_K_K@Z
	?_Calculate_growth@?$basic_string@_WU?$char_traits@_W@std@@V?$allocator@_W@2@@std@@CA_K_K00@Z
	?_Check_offset@?$_String_val@U?$_Simple_types@_W@std@@@std@@QEBAX_K@Z
	?_Construct_empty@?$basic_string@_WU?$char_traits@_W@std@@V?$allocator@_W@2@@std@@AEAAXXZ
	?_Deallocate_for_capacity@?$basic_string@_WU?$char_traits@_W@std@@V?$allocator@_W@2@@std@@CAXAEAV?$allocator@_W@2@QEA_W_K@Z
	?_Get_first@?$_Compressed_pair@V?$allocator@_W@std@@V?$_String_val@U?$_Simple_types@_W@std@@@2@$00@std@@QEAAAEAV?$allocator@_W@2@XZ
	?_Get_first@?$_Compressed_pair@V?$allocator@_W@std@@V?$_String_val@U?$_Simple_types@_W@std@@@2@$00@std@@QEBAAEBV?$allocator@_W@2@XZ
	?_Getal@?$basic_string@_WU?$char_traits@_W@std@@V?$allocator@_W@2@@std@@AEAAAEAV?$allocator@_W@2@XZ
	?_Getal@?$basic_string@_WU?$char_traits@_W@std@@V?$allocator@_W@2@@std@@AEBAAEBV?$allocator@_W@2@XZ
	?_Large_mode_engaged@?$_String_val@U?$_Simple_types@_W@std@@@std@@QEBA_NXZ
	?_Myptr@?$_String_val@U?$_Simple_types@_W@std@@@std@@QEAAPEA_WXZ
	?_Myptr@?$_String_val@U?$_Simple_types@_W@std@@@std@@QEBAPEB_WXZ
	?_Orphan_all@_Container_base12@std@@QEAAXXZ
	?_Orphan_all_locked_v3@_Container_base12@std@@AEAAXXZ
	?_Orphan_all_unlocked_v3@_Container_base12@std@@AEAAXXZ
	?_Release@_Basic_container_proxy_ptr12@std@@QEAAXXZ
	?_Swap_proxy_and_iterators@?$basic_string@_WU?$char_traits@_W@std@@V?$allocator@_W@2@@std@@AEAAXAEAV12@@Z
	?_Swap_proxy_and_iterators@_Container_base12@std@@QEAAXAEAU12@@Z
	?_Swap_proxy_and_iterators_locked@_Container_base12@std@@AEAAXAEAU12@@Z
	?_Swap_proxy_and_iterators_unlocked@_Container_base12@std@@AEAAXAEAU12@@Z
	?_Switch_to_buf@_Bxty@?$_String_val@U?$_Simple_types@_W@std@@@std@@QEAAXXZ
	?_Take_contents@?$basic_string@_WU?$char_traits@_W@std@@V?$allocator@_W@2@@std@@AEAAXAEAV12@@Z
	?_Throw_bad_array_new_length@std@@YAXXZ
	?_Tidy_deallocate@?$basic_string@_WU?$char_traits@_W@std@@V?$allocator@_W@2@@std@@AEAAXXZ
	?_Xlen_string@std@@YAXXZ
	?_Xran@?$_String_val@U?$_Simple_types@_W@std@@@std@@SAXXZ
	?allocate@?$allocator@U_Container_proxy@std@@@std@@QEAAPEAU_Container_proxy@2@_K@Z
	?allocate@?$allocator@_W@std@@QEAAPEA_W_K@Z
	?append@?$basic_string@_WU?$char_traits@_W@std@@V?$allocator@_W@2@@std@@QEAAAEAV12@QEB_W@Z
	?append@?$basic_string@_WU?$char_traits@_W@std@@V?$allocator@_W@2@@std@@QEAAAEAV12@QEB_W_K@Z
	?assign@?$_WChar_traits@_W@std@@SAXAEA_WAEB_W@Z
	?assign@?$basic_string@_WU?$char_traits@_W@std@@V?$allocator@_W@2@@std@@QEAAAEAV12@QEB_W@Z
	?assign@?$basic_string@_WU?$char_traits@_W@std@@V?$allocator@_W@2@@std@@QEAAAEAV12@QEB_W_K@Z
	?c_str@?$basic_string@_WU?$char_traits@_W@std@@V?$allocator@_W@2@@std@@QEBAPEB_WXZ
	?copy@?$_Char_traits@_WG@std@@SAPEA_WQEA_WQEB_W_K@Z
	?count@track@@QEAAIXZ
	?deallocate@?$_Default_allocator_traits@V?$allocator@U_Container_proxy@std@@@std@@@std@@SAXAEAV?$allocator@U_Container_proxy@std@@@2@QEAU_Container_proxy@2@_K@Z
	?deallocate@?$allocator@_W@std@@QEAAXQEA_W_K@Z
	?distance@track@@QEAAIXZ
	?insert@?$basic_string@_WU?$char_traits@_W@std@@V?$allocator@_W@2@@std@@QEAAAEAV12@_KAEBV12@@Z
	?insert@?$basic_string@_WU?$char_traits@_W@std@@V?$allocator@_W@2@@std@@QEAAAEAV12@_KQEB_W0@Z
	?isAir@baseTransport@@QEAA_NXZ
	?koef@broom@@UEAAHH@Z
	?koef@carpet@@UEAAHH@Z
	?koef@eagle@@UEAAHH@Z
	?length@?$_WChar_traits@_W@std@@SA_KPEB_W@Z
	?list@track@@QEAA?AV?$basic_string@_WU?$char_traits@_W@std@@V?$allocator@_W@2@@std@@XZ
	?max_size@?$_Default_allocator_traits@V?$allocator@_W@std@@@std@@SA_KAEBV?$allocator@_W@2@@Z
	?max_size@?$basic_string@_WU?$char_traits@_W@std@@V?$allocator@_W@2@@std@@QEBA_KXZ
	?move@?$_Char_traits@_WG@std@@SAPEA_WQEA_WQEB_W_K@Z
	?name@baseTransport@@QEAA?AV?$basic_string@_WU?$char_traits@_W@std@@V?$allocator@_W@2@@std@@XZ
	?race@track@@QEAA?AVresultRace@@XZ
	?rasing@airTransport@@UEAANH@Z
	?rasing@groundTransport@@UEAANH@Z
	?registration@airTrack@@UEAAXPEAVbaseTransport@@@Z
	?registration@allTrack@@UEAAXPEAVbaseTransport@@@Z
	?registration@groundTrack@@UEAAXPEAVbaseTransport@@@Z
	?repose@boots@@UEAANH@Z
	?repose@camel@@UEAANH@Z
	?repose@camelFast@@UEAANH@Z
	?repose@centaur@@UEAANH@Z
	?select_on_container_copy_construction@?$_Default_allocator_traits@V?$allocator@_W@std@@@std@@SA?AV?$allocator@_W@2@AEBV32@@Z
	?setDist@track@@QEAAXH@Z
	?sharedRegistration@track@@IEAAXPEAVbaseTransport@@@Z
	?size@?$basic_string@_WU?$char_traits@_W@std@@V?$allocator@_W@2@@std@@QEBA_KXZ
	?sort@resultRace@@QEAAXXZ
	?transportType@baseTransport@@QEAA?AW4transport@@XZ
	?what@exception@std@@UEBAPEBDXZ
